target datalayout = "e-m:e-p270:32:32-p271:32:32-p272:64:64-i64:64-i128:128-f80:128-n8:16:32:64-S128"
target triple = "x86_64-pc-linux-gnu"

%"class.Ipopt::TNLPReducer" = type { %"class.Ipopt::TNLP.base", %"class.Ipopt::SmartPtr", i32, i32, i32, ptr, i32, ptr, i32, i32, i32, ptr, i32, ptr, i32, ptr, i32, ptr }
%"class.Ipopt::TNLP.base" = type { %"class.Ipopt::ReferencedObject.base" }
%"class.Ipopt::ReferencedObject.base" = type <{ ptr, i32 }>
%"class.Ipopt::SmartPtr" = type { ptr }

; Function Attrs: mustprogress nounwind uwtable
define linkonce_odr noundef ptr @_ZNK5Ipopt8SmartPtrINS_4TNLPEEptEv(ptr noundef nonnull align 8 dereferenceable(8) %0) #3 comdat align 2 {
  %2 = alloca ptr, align 8
  store ptr %0, ptr %2, align 8
  %3 = load ptr, ptr %2, align 8
  %4 = getelementptr inbounds %"class.Ipopt::SmartPtr", ptr %3, i32 0, i32 0
  %5 = load ptr, ptr %4, align 8
  ret ptr %5
}

; Function Attrs: mustprogress uwtable
define noundef zeroext i1 @_ZN5Ipopt11TNLPReducer6eval_gEiPKdbiPd(ptr noundef nonnull align 8 dereferenceable(136) %0, i32 noundef %1, ptr noundef %2, i1 noundef zeroext %3, i32 noundef %4, ptr noundef %5) unnamed_addr #0 align 2 {
  %7 = alloca ptr, align 8
  %8 = alloca i32, align 4
  %9 = alloca ptr, align 8
  %10 = alloca i8, align 1
  %11 = alloca i32, align 4
  %12 = alloca ptr, align 8
  %13 = alloca ptr, align 8
  %14 = alloca i8, align 1
  %15 = alloca i32, align 4
  %16 = alloca ptr, align 8
  store ptr %0, ptr %7, align 8
  store i32 %1, ptr %8, align 4
  store ptr %2, ptr %9, align 8
  %17 = zext i1 %3 to i8
  store i8 %17, ptr %10, align 1
  store i32 %4, ptr %11, align 4
  store ptr %5, ptr %12, align 8
  %18 = load ptr, ptr %7, align 8
  %19 = getelementptr inbounds %"class.Ipopt::TNLPReducer", ptr %18, i32 0, i32 2
  %20 = load i32, ptr %19, align 8
  %21 = sext i32 %20 to i64
  %22 = call { i64, i1 } @llvm.umul.with.overflow.i64(i64 %21, i64 8)
  %23 = extractvalue { i64, i1 } %22, 1
  %24 = extractvalue { i64, i1 } %22, 0
  %25 = select i1 %23, i64 -1, i64 %24
  %26 = call noalias noundef nonnull ptr @_Znam(i64 noundef %25) #8
  store ptr %26, ptr %13, align 8
  %27 = getelementptr inbounds %"class.Ipopt::TNLPReducer", ptr %18, i32 0, i32 1
  %28 = call noundef ptr @_ZNK5Ipopt8SmartPtrINS_4TNLPEEptEv(ptr noundef nonnull align 8 dereferenceable(8) %27)
  %29 = load i32, ptr %8, align 4
  %30 = load ptr, ptr %9, align 8
  %31 = load i8, ptr %10, align 1
  %32 = trunc i8 %31 to i1
  %33 = getelementptr inbounds %"class.Ipopt::TNLPReducer", ptr %18, i32 0, i32 2
  %34 = load i32, ptr %33, align 8
  %35 = load ptr, ptr %13, align 8
  %36 = load ptr, ptr %28, align 8
  %37 = getelementptr inbounds ptr, ptr %36, i64 12
  %38 = load ptr, ptr %37, align 8
  %39 = call noundef zeroext i1 %38(ptr noundef nonnull align 8 dereferenceable(12) %28, i32 noundef %29, ptr noundef %30, i1 noundef zeroext %32, i32 noundef %34, ptr noundef %35)
  %40 = zext i1 %39 to i8
  store i8 %40, ptr %14, align 1
  %41 = load i8, ptr %14, align 1
  %42 = trunc i8 %41 to i1
  br i1 %42, label %43, label %74

43:                                               ; preds = %6
  store i32 0, ptr %15, align 4
  br label %44

44:                                               ; preds = %70, %43
  %45 = load i32, ptr %15, align 4
  %46 = getelementptr inbounds %"class.Ipopt::TNLPReducer", ptr %18, i32 0, i32 2
  %47 = load i32, ptr %46, align 8
  %48 = icmp slt i32 %45, %47
  br i1 %48, label %49, label %73

49:                                               ; preds = %44
  %50 = getelementptr inbounds %"class.Ipopt::TNLPReducer", ptr %18, i32 0, i32 7
  %51 = load ptr, ptr %50, align 8
  %52 = load i32, ptr %15, align 4
  %53 = sext i32 %52 to i64
  %54 = getelementptr inbounds i32, ptr %51, i64 %53
  store ptr %54, ptr %16, align 8
  %55 = load ptr, ptr %16, align 8
  %56 = load i32, ptr %55, align 4
  %57 = icmp sge i32 %56, 0
  br i1 %57, label %58, label %69

58:                                               ; preds = %49
  %59 = load ptr, ptr %13, align 8
  %60 = load i32, ptr %15, align 4
  %61 = sext i32 %60 to i64
  %62 = getelementptr inbounds double, ptr %59, i64 %61
  %63 = load double, ptr %62, align 8
  %64 = load ptr, ptr %12, align 8
  %65 = load ptr, ptr %16, align 8
  %66 = load i32, ptr %65, align 4
  %67 = sext i32 %66 to i64
  %68 = getelementptr inbounds double, ptr %64, i64 %67
  store double %63, ptr %68, align 8
  br label %69

69:                                               ; preds = %58, %49
  br label %70

70:                                               ; preds = %69
  %71 = load i32, ptr %15, align 4
  %72 = add nsw i32 %71, 1
  store i32 %72, ptr %15, align 4
  br label %44, !llvm.loop !20

73:                                               ; preds = %44
  br label %74

74:                                               ; preds = %73, %6
  %75 = load ptr, ptr %13, align 8
  %76 = icmp eq ptr %75, null
  br i1 %76, label %78, label %77

77:                                               ; preds = %74
  call void @_ZdaPv(ptr noundef %75) #11
  br label %78

78:                                               ; preds = %77, %74
  %79 = load i8, ptr %14, align 1
  %80 = trunc i8 %79 to i1
  ret i1 %80
}