; Function Attrs: mustprogress uwtable
define noundef zeroext i1 @_ZN5Ipopt11TNLPReducer6eval_gEiPKdbiPd(ptr nocapture noundef nonnull readonly align 8 dereferenceable(136) %0, i32 noundef %1, ptr noundef %2, i1 noundef zeroext %3, i32 %4, ptr nocapture noundef writeonly %5) unnamed_addr #0 align 2 {
  %7 = getelementptr inbounds i8, ptr %0, i64 24
  %8 = load i32, ptr %7, align 8
  %9 = sext i32 %8 to i64
  %10 = icmp slt i32 %8, 0
  %11 = shl nsw i64 %9, 3
  %12 = select i1 %10, i64 -1, i64 %11
  %13 = tail call noalias noundef nonnull ptr @_Znam(i64 noundef %12) #8
  %14 = getelementptr inbounds i8, ptr %0, i64 16
  %15 = load ptr, ptr %14, align 8
  %16 = load ptr, ptr %15, align 8
  %17 = getelementptr inbounds i8, ptr %16, i64 96
  %18 = load ptr, ptr %17, align 8
  %19 = tail call noundef zeroext i1 %18(ptr noundef nonnull align 8 dereferenceable(12) %15, i32 noundef %1, ptr noundef %2, i1 noundef zeroext %3, i32 noundef %8, ptr noundef nonnull %13)
  %20 = load i32, ptr %7, align 8
  %21 = icmp sgt i32 %20, 0
  %or.cond = select i1 %19, i1 %21, i1 false
  br i1 %or.cond, label %.lr.ph, label %.loopexit

.lr.ph:                                           ; preds = %6
  %22 = getelementptr inbounds i8, ptr %0, i64 56
  br label %23

23:                                               ; preds = %.lr.ph, %34
  %24 = phi i32 [ %20, %.lr.ph ], [ %35, %34 ]
  %indvars.iv = phi i64 [ 0, %.lr.ph ], [ %indvars.iv.next, %34 ]
  %25 = load ptr, ptr %22, align 8
  %26 = getelementptr inbounds i32, ptr %25, i64 %indvars.iv
  %27 = load i32, ptr %26, align 4
  %28 = icmp sgt i32 %27, -1
  br i1 %28, label %29, label %34

29:                                               ; preds = %23
  %30 = getelementptr inbounds double, ptr %13, i64 %indvars.iv
  %31 = load double, ptr %30, align 8
  %32 = zext nneg i32 %27 to i64
  %33 = getelementptr inbounds double, ptr %5, i64 %32
  store double %31, ptr %33, align 8
  %.pre = load i32, ptr %7, align 8
  br label %34

34:                                               ; preds = %23, %29
  %35 = phi i32 [ %24, %23 ], [ %.pre, %29 ]
  %indvars.iv.next = add nuw nsw i64 %indvars.iv, 1
  %36 = sext i32 %35 to i64
  %37 = icmp slt i64 %indvars.iv.next, %36
  br i1 %37, label %23, label %.loopexit, !llvm.loop !20

.loopexit:                                        ; preds = %34, %6
  tail call void @_ZdaPv(ptr noundef nonnull %13) #9
  ret i1 %19
}